
app:     file format elf32-littlearm


Disassembly of section .kernel.text:

00080000 <__start_kernel>:
   80000:	e10f0000 	mrs	r0, CPSR
   80004:	e3c0001f 	bic	r0, r0, #31
   80008:	e3800013 	orr	r0, r0, #19
   8000c:	e38000c0 	orr	r0, r0, #192	@ 0xc0
   80010:	e129f000 	msr	CPSR_fc, r0
   80014:	e59f0048 	ldr	r0, [pc, #72]	@ 80064 <__start_kernel+0x64>
   80018:	e59f1048 	ldr	r1, [pc, #72]	@ 80068 <__start_kernel+0x68>
   8001c:	e5801000 	str	r1, [r0]
   80020:	e59f0044 	ldr	r0, [pc, #68]	@ 8006c <__start_kernel+0x6c>
   80024:	e3a01000 	mov	r1, #0
   80028:	e5801000 	str	r1, [r0]
   8002c:	e59f003c 	ldr	r0, [pc, #60]	@ 80070 <__start_kernel+0x70>
   80030:	e5901000 	ldr	r1, [r0]
   80034:	e3811080 	orr	r1, r1, #128	@ 0x80
   80038:	e5801000 	str	r1, [r0]
   8003c:	e59f0030 	ldr	r0, [pc, #48]	@ 80074 <__start_kernel+0x74>
   80040:	e5901000 	ldr	r1, [r0]
   80044:	e3811080 	orr	r1, r1, #128	@ 0x80
   80048:	e5801000 	str	r1, [r0]
   8004c:	e59f0024 	ldr	r0, [pc, #36]	@ 80078 <__start_kernel+0x78>
   80050:	e5901000 	ldr	r1, [r0]
   80054:	e3811080 	orr	r1, r1, #128	@ 0x80
   80058:	e5801000 	str	r1, [r0]
   8005c:	e59fd018 	ldr	sp, [pc, #24]	@ 8007c <__start_kernel+0x7c>
   80060:	ea000006 	b	80080 <kernel_start>
   80064:	f8000008 			@ <UNDEFINED> instruction: 0xf8000008
   80068:	0000df0d 	andeq	sp, r0, sp, lsl #30
   8006c:	f800071c 			@ <UNDEFINED> instruction: 0xf800071c
   80070:	e000a204 	and	sl, r0, r4, lsl #4
   80074:	e000a208 	and	sl, r0, r8, lsl #4
   80078:	e000a040 	and	sl, r0, r0, asr #32
   8007c:	00090088 	andeq	r0, r9, r8, lsl #1

00080080 <kernel_start>:
   80080:	b480      	push	{r7}
   80082:	af00      	add	r7, sp, #0
   80084:	bf00      	nop
   80086:	e7fd      	b.n	80084 <kernel_start+0x4>
